target datalayout = "e-m:e-p270:32:32-p271:32:32-p272:64:64-i64:64-i128:128-f80:128-n8:16:32:64-S128"
target triple = "x86_64-pc-linux-gnu"

%struct.NFA = type { i32, i32, i8, i8, i8, i8, %union.anon, i32, i32, i32, i32, i32, i32, i32, [20 x i8] }
%union.anon = type { i16 }

; Function Attrs: nounwind uwtable
define hidden signext i8 @nfaQueueInitState(ptr noundef %0, ptr noundef %1) #0 {
  %3 = alloca i8, align 1
  %4 = alloca ptr, align 8
  %5 = alloca ptr, align 8
  %6 = alloca i32, align 4
  %7 = alloca i32, align 4
  %8 = alloca i32, align 4
  %9 = alloca i32, align 4
  store ptr %0, ptr %4, align 8
  store ptr %1, ptr %5, align 8
  %10 = load ptr, ptr %4, align 8
  %11 = getelementptr inbounds nuw %struct.NFA, ptr %10, i32 0, i32 2
  %12 = load i8, ptr %11, align 8
  %13 = zext i8 %12 to i32
  switch i32 %13, label %110 [
    i32 0, label %14
    i32 1, label %18
    i32 2, label %22
    i32 3, label %26
    i32 4, label %30
    i32 5, label %34
    i32 6, label %38
    i32 7, label %42
    i32 8, label %46
    i32 9, label %50
    i32 10, label %54
    i32 11, label %58
    i32 12, label %62
    i32 13, label %66
    i32 14, label %70
    i32 15, label %74
    i32 16, label %78
    i32 17, label %82
    i32 18, label %86
    i32 19, label %90
    i32 20, label %94
    i32 21, label %98
    i32 22, label %101
    i32 23, label %104
    i32 24, label %107
  ]

14:                                               ; preds = %2
  %15 = load ptr, ptr %4, align 8
  %16 = load ptr, ptr %5, align 8
  %17 = call signext i8 @nfaExecLimEx32_queueInitState(ptr noundef %15, ptr noundef %16)
  store i8 %17, ptr %3, align 1
  br label %112

18:                                               ; preds = %2
  %19 = load ptr, ptr %4, align 8
  %20 = load ptr, ptr %5, align 8
  %21 = call signext i8 @nfaExecLimEx64_queueInitState(ptr noundef %19, ptr noundef %20)
  store i8 %21, ptr %3, align 1
  br label %112

22:                                               ; preds = %2
  %23 = load ptr, ptr %4, align 8
  %24 = load ptr, ptr %5, align 8
  %25 = call signext i8 @nfaExecLimEx128_queueInitState(ptr noundef %23, ptr noundef %24)
  store i8 %25, ptr %3, align 1
  br label %112

26:                                               ; preds = %2
  %27 = load ptr, ptr %4, align 8
  %28 = load ptr, ptr %5, align 8
  %29 = call signext i8 @nfaExecLimEx256_queueInitState(ptr noundef %27, ptr noundef %28)
  store i8 %29, ptr %3, align 1
  br label %112

30:                                               ; preds = %2
  %31 = load ptr, ptr %4, align 8
  %32 = load ptr, ptr %5, align 8
  %33 = call signext i8 @nfaExecLimEx384_queueInitState(ptr noundef %31, ptr noundef %32)
  store i8 %33, ptr %3, align 1
  br label %112

34:                                               ; preds = %2
  %35 = load ptr, ptr %4, align 8
  %36 = load ptr, ptr %5, align 8
  %37 = call signext i8 @nfaExecLimEx512_queueInitState(ptr noundef %35, ptr noundef %36)
  store i8 %37, ptr %3, align 1
  br label %112

38:                                               ; preds = %2
  %39 = load ptr, ptr %4, align 8
  %40 = load ptr, ptr %5, align 8
  %41 = call signext i8 @nfaExecMcClellan8_queueInitState(ptr noundef %39, ptr noundef %40)
  store i8 %41, ptr %3, align 1
  br label %112

42:                                               ; preds = %2
  %43 = load ptr, ptr %4, align 8
  %44 = load ptr, ptr %5, align 8
  %45 = call signext i8 @nfaExecMcClellan16_queueInitState(ptr noundef %43, ptr noundef %44)
  store i8 %45, ptr %3, align 1
  br label %112

46:                                               ; preds = %2
  %47 = load ptr, ptr %4, align 8
  %48 = load ptr, ptr %5, align 8
  %49 = call signext i8 @nfaExecGough8_queueInitState(ptr noundef %47, ptr noundef %48)
  store i8 %49, ptr %3, align 1
  br label %112

50:                                               ; preds = %2
  %51 = load ptr, ptr %4, align 8
  %52 = load ptr, ptr %5, align 8
  %53 = call signext i8 @nfaExecGough16_queueInitState(ptr noundef %51, ptr noundef %52)
  store i8 %53, ptr %3, align 1
  br label %112

54:                                               ; preds = %2
  %55 = load ptr, ptr %4, align 8
  %56 = load ptr, ptr %5, align 8
  %57 = call signext i8 @nfaExecMpv_queueInitState(ptr noundef %55, ptr noundef %56)
  store i8 %57, ptr %3, align 1
  br label %112

58:                                               ; preds = %2
  %59 = load ptr, ptr %4, align 8
  %60 = load ptr, ptr %5, align 8
  %61 = call signext i8 @nfaExecLbrDot_queueInitState(ptr noundef %59, ptr noundef %60)
  store i8 %61, ptr %3, align 1
  br label %112

62:                                               ; preds = %2
  %63 = load ptr, ptr %4, align 8
  %64 = load ptr, ptr %5, align 8
  %65 = call signext i8 @nfaExecLbrVerm_queueInitState(ptr noundef %63, ptr noundef %64)
  store i8 %65, ptr %3, align 1
  br label %112

66:                                               ; preds = %2
  %67 = load ptr, ptr %4, align 8
  %68 = load ptr, ptr %5, align 8
  %69 = call signext i8 @nfaExecLbrNVerm_queueInitState(ptr noundef %67, ptr noundef %68)
  store i8 %69, ptr %3, align 1
  br label %112

70:                                               ; preds = %2
  %71 = load ptr, ptr %4, align 8
  %72 = load ptr, ptr %5, align 8
  %73 = call signext i8 @nfaExecLbrShuf_queueInitState(ptr noundef %71, ptr noundef %72)
  store i8 %73, ptr %3, align 1
  br label %112

74:                                               ; preds = %2
  %75 = load ptr, ptr %4, align 8
  %76 = load ptr, ptr %5, align 8
  %77 = call signext i8 @nfaExecLbrTruf_queueInitState(ptr noundef %75, ptr noundef %76)
  store i8 %77, ptr %3, align 1
  br label %112

78:                                               ; preds = %2
  %79 = load ptr, ptr %4, align 8
  %80 = load ptr, ptr %5, align 8
  %81 = call signext i8 @nfaExecCastle_queueInitState(ptr noundef %79, ptr noundef %80)
  store i8 %81, ptr %3, align 1
  br label %112

82:                                               ; preds = %2
  %83 = load ptr, ptr %4, align 8
  %84 = load ptr, ptr %5, align 8
  %85 = call signext i8 @nfaExecSheng_queueInitState(ptr noundef %83, ptr noundef %84)
  store i8 %85, ptr %3, align 1
  br label %112

86:                                               ; preds = %2
  %87 = load ptr, ptr %4, align 8
  %88 = load ptr, ptr %5, align 8
  %89 = call signext i8 @nfaExecTamarama_queueInitState(ptr noundef %87, ptr noundef %88)
  store i8 %89, ptr %3, align 1
  br label %112

90:                                               ; preds = %2
  %91 = load ptr, ptr %4, align 8
  %92 = load ptr, ptr %5, align 8
  %93 = call signext i8 @nfaExecMcSheng8_queueInitState(ptr noundef %91, ptr noundef %92)
  store i8 %93, ptr %3, align 1
  br label %112

94:                                               ; preds = %2
  %95 = load ptr, ptr %4, align 8
  %96 = load ptr, ptr %5, align 8
  %97 = call signext i8 @nfaExecMcSheng16_queueInitState(ptr noundef %95, ptr noundef %96)
  store i8 %97, ptr %3, align 1
  br label %112

98:                                               ; preds = %2
  store i32 0, ptr %6, align 4
  %99 = load i32, ptr %6, align 4
  %100 = trunc i32 %99 to i8
  store i8 %100, ptr %3, align 1
  br label %112

101:                                              ; preds = %2
  store i32 0, ptr %7, align 4
  %102 = load i32, ptr %7, align 4
  %103 = trunc i32 %102 to i8
  store i8 %103, ptr %3, align 1
  br label %112

104:                                              ; preds = %2
  store i32 0, ptr %8, align 4
  %105 = load i32, ptr %8, align 4
  %106 = trunc i32 %105 to i8
  store i8 %106, ptr %3, align 1
  br label %112

107:                                              ; preds = %2
  store i32 0, ptr %9, align 4
  %108 = load i32, ptr %9, align 4
  %109 = trunc i32 %108 to i8
  store i8 %109, ptr %3, align 1
  br label %112

110:                                              ; preds = %2
  br label %111

111:                                              ; preds = %110
  store i8 0, ptr %3, align 1
  br label %112

112:                                              ; preds = %111, %107, %104, %101, %98, %94, %90, %86, %82, %78, %74, %70, %66, %62, %58, %54, %50, %46, %42, %38, %34, %30, %26, %22, %18, %14
  %113 = load i8, ptr %3, align 1
  ret i8 %113
}